target datalayout = "e-m:e-p270:32:32-p271:32:32-p272:64:64-i64:64-i128:128-f80:128-n8:16:32:64-S128"
target triple = "x86_64-pc-linux-gnu"

%struct.Pdr_Set_t_ = type { i64, i32, i32, i32, [0 x i32] }
%struct.Aig_Obj_t_ = type { %union.anon, ptr, ptr, i64, i32, i32, %union.anon.0 }
%union.anon = type { ptr }
%union.anon.0 = type { ptr }
%struct.Aig_Man_t_ = type { ptr, ptr, ptr, ptr, ptr, ptr, ptr, %struct.Aig_Obj_t_, i32, i32, i32, i32, i32, i32, [7 x i32], i32, ptr, i32, ptr, i32, ptr, i32, i32, i32, ptr, i32, i32, i32, i32, i32, ptr, ptr, i32, ptr, ptr, i32, ptr, ptr, i32, i32, i32, ptr, ptr, ptr, ptr, ptr, ptr, ptr, ptr, ptr, ptr, ptr, ptr, ptr, ptr, i32, ptr, ptr, ptr, ptr, i32, i64, i64, i64, ptr, ptr }

; Function Attrs: nounwind uwtable
define internal i32 @Aig_IsComplement(ptr noundef %0) #0 {
  %2 = alloca ptr, align 8
  store ptr %0, ptr %2, align 8
  %3 = load ptr, ptr %2, align 8
  %4 = ptrtoint ptr %3 to i64
  %5 = and i64 %4, 1
  %6 = trunc i64 %5 to i32
  ret i32 %6
}

; Function Attrs: nounwind uwtable
define internal ptr @Aig_Regular(ptr noundef %0) #0 {
  %2 = alloca ptr, align 8
  store ptr %0, ptr %2, align 8
  %3 = load ptr, ptr %2, align 8
  %4 = ptrtoint ptr %3 to i64
  %5 = and i64 %4, -2
  %6 = inttoptr i64 %5 to ptr
  ret ptr %6
}

; Function Attrs: nounwind uwtable
define internal i32 @Aig_ObjId(ptr noundef %0) #0 {
  %2 = alloca ptr, align 8
  store ptr %0, ptr %2, align 8
  %3 = load ptr, ptr %2, align 8
  %4 = getelementptr inbounds %struct.Aig_Obj_t_, ptr %3, i32 0, i32 5
  %5 = load i32, ptr %4, align 4
  ret i32 %5
}

; Function Attrs: nounwind uwtable
define internal i32 @Pdr_ObjSatValue(ptr noundef %0, ptr noundef %1, i32 noundef %2) #0 {
  %4 = alloca i32, align 4
  %5 = alloca ptr, align 8
  %6 = alloca ptr, align 8
  %7 = alloca i32, align 4
  store ptr %0, ptr %5, align 8
  store ptr %1, ptr %6, align 8
  store i32 %2, ptr %7, align 4
  %8 = load ptr, ptr %5, align 8
  %9 = load ptr, ptr %6, align 8
  %10 = call i32 @Aig_ObjIsTravIdCurrent(ptr noundef %8, ptr noundef %9)
  %11 = icmp ne i32 %10, 0
  br i1 %11, label %12, label %23

12:                                               ; preds = %3
  %13 = load ptr, ptr %6, align 8
  %14 = getelementptr inbounds %struct.Aig_Obj_t_, ptr %13, i32 0, i32 3
  %15 = load i64, ptr %14, align 8
  %16 = lshr i64 %15, 4
  %17 = and i64 %16, 1
  %18 = trunc i64 %17 to i32
  %19 = load i32, ptr %7, align 4
  %20 = xor i32 %18, %19
  %21 = icmp ne i32 %20, 0
  %22 = select i1 %21, i32 2, i32 1
  store i32 %22, ptr %4, align 4
  br label %24

23:                                               ; preds = %3
  store i32 3, ptr %4, align 4
  br label %24

24:                                               ; preds = %23, %12
  %25 = load i32, ptr %4, align 4
  ret i32 %25
}

; Function Attrs: nounwind uwtable
define internal i32 @Aig_ObjFaninC1(ptr noundef %0) #0 {
  %2 = alloca ptr, align 8
  store ptr %0, ptr %2, align 8
  %3 = load ptr, ptr %2, align 8
  %4 = getelementptr inbounds %struct.Aig_Obj_t_, ptr %3, i32 0, i32 2
  %5 = load ptr, ptr %4, align 8
  %6 = call i32 @Aig_IsComplement(ptr noundef %5)
  ret i32 %6
}

; Function Attrs: nounwind uwtable
define internal ptr @Aig_ObjFanin1(ptr noundef %0) #0 {
  %2 = alloca ptr, align 8
  store ptr %0, ptr %2, align 8
  %3 = load ptr, ptr %2, align 8
  %4 = getelementptr inbounds %struct.Aig_Obj_t_, ptr %3, i32 0, i32 2
  %5 = load ptr, ptr %4, align 8
  %6 = call ptr @Aig_Regular(ptr noundef %5)
  ret ptr %6
}

; Function Attrs: nounwind uwtable
define internal i32 @Aig_ObjFaninC0(ptr noundef %0) #0 {
  %2 = alloca ptr, align 8
  store ptr %0, ptr %2, align 8
  %3 = load ptr, ptr %2, align 8
  %4 = getelementptr inbounds %struct.Aig_Obj_t_, ptr %3, i32 0, i32 1
  %5 = load ptr, ptr %4, align 8
  %6 = call i32 @Aig_IsComplement(ptr noundef %5)
  ret i32 %6
}

; Function Attrs: nounwind uwtable
define internal ptr @Aig_ObjFanin0(ptr noundef %0) #0 {
  %2 = alloca ptr, align 8
  store ptr %0, ptr %2, align 8
  %3 = load ptr, ptr %2, align 8
  %4 = getelementptr inbounds %struct.Aig_Obj_t_, ptr %3, i32 0, i32 1
  %5 = load ptr, ptr %4, align 8
  %6 = call ptr @Aig_Regular(ptr noundef %5)
  ret ptr %6
}

; Function Attrs: nounwind uwtable
define internal i32 @Abc_Var2Lit(i32 noundef %0, i32 noundef %1) #0 {
  %3 = alloca i32, align 4
  %4 = alloca i32, align 4
  store i32 %0, ptr %3, align 4
  store i32 %1, ptr %4, align 4
  %5 = load i32, ptr %3, align 4
  %6 = load i32, ptr %3, align 4
  %7 = add nsw i32 %5, %6
  %8 = load i32, ptr %4, align 4
  %9 = add nsw i32 %7, %8
  ret i32 %9
}

; Function Attrs: nounwind uwtable
define internal i32 @Saig_ManPiNum(ptr noundef %0) #0 {
  %2 = alloca ptr, align 8
  store ptr %0, ptr %2, align 8
  %3 = load ptr, ptr %2, align 8
  %4 = getelementptr inbounds %struct.Aig_Man_t_, ptr %3, i32 0, i32 9
  %5 = load i32, ptr %4, align 4
  ret i32 %5
}

; Function Attrs: nounwind uwtable
define internal i32 @Aig_ObjCioId(ptr noundef %0) #0 {
  %2 = alloca ptr, align 8
  store ptr %0, ptr %2, align 8
  %3 = load ptr, ptr %2, align 8
  %4 = getelementptr inbounds %struct.Aig_Obj_t_, ptr %3, i32 0, i32 0
  %5 = load i32, ptr %4, align 8
  ret i32 %5
}

; Function Attrs: nounwind uwtable
define internal i32 @Saig_ObjIsLo(ptr noundef %0, ptr noundef %1) #0 {
  %3 = alloca ptr, align 8
  %4 = alloca ptr, align 8
  store ptr %0, ptr %3, align 8
  store ptr %1, ptr %4, align 8
  %5 = load ptr, ptr %4, align 8
  %6 = call i32 @Aig_ObjIsCi(ptr noundef %5)
  %7 = icmp ne i32 %6, 0
  br i1 %7, label %8, label %14

8:                                                ; preds = %2
  %9 = load ptr, ptr %4, align 8
  %10 = call i32 @Aig_ObjCioId(ptr noundef %9)
  %11 = load ptr, ptr %3, align 8
  %12 = call i32 @Saig_ManPiNum(ptr noundef %11)
  %13 = icmp sge i32 %10, %12
  br label %14

14:                                               ; preds = %8, %2
  %15 = phi i1 [ false, %2 ], [ %13, %8 ]
  %16 = zext i1 %15 to i32
  ret i32 %16
}

; Function Attrs: nounwind uwtable
define internal i32 @Aig_ObjIsCi(ptr noundef %0) #0 {
  %2 = alloca ptr, align 8
  store ptr %0, ptr %2, align 8
  %3 = load ptr, ptr %2, align 8
  %4 = getelementptr inbounds %struct.Aig_Obj_t_, ptr %3, i32 0, i32 3
  %5 = load i64, ptr %4, align 8
  %6 = and i64 %5, 7
  %7 = trunc i64 %6 to i32
  %8 = icmp eq i32 %7, 2
  %9 = zext i1 %8 to i32
  ret i32 %9
}

; Function Attrs: nounwind uwtable
define internal void @Aig_ObjSetTravIdCurrent(ptr noundef %0, ptr noundef %1) #0 {
  %3 = alloca ptr, align 8
  %4 = alloca ptr, align 8
  store ptr %0, ptr %3, align 8
  store ptr %1, ptr %4, align 8
  %5 = load ptr, ptr %3, align 8
  %6 = getelementptr inbounds %struct.Aig_Man_t_, ptr %5, i32 0, i32 38
  %7 = load i32, ptr %6, align 8
  %8 = load ptr, ptr %4, align 8
  %9 = getelementptr inbounds %struct.Aig_Obj_t_, ptr %8, i32 0, i32 4
  store i32 %7, ptr %9, align 8
  ret void
}

; Function Attrs: nounwind uwtable
define internal i32 @Aig_ObjIsTravIdCurrent(ptr noundef %0, ptr noundef %1) #0 {
  %3 = alloca ptr, align 8
  %4 = alloca ptr, align 8
  store ptr %0, ptr %3, align 8
  store ptr %1, ptr %4, align 8
  %5 = load ptr, ptr %4, align 8
  %6 = getelementptr inbounds %struct.Aig_Obj_t_, ptr %5, i32 0, i32 4
  %7 = load i32, ptr %6, align 8
  %8 = load ptr, ptr %3, align 8
  %9 = getelementptr inbounds %struct.Aig_Man_t_, ptr %8, i32 0, i32 38
  %10 = load i32, ptr %9, align 8
  %11 = icmp eq i32 %7, %10
  %12 = zext i1 %11 to i32
  ret i32 %12
}

; Function Attrs: nounwind uwtable
define internal i32 @Aig_ObjIsConst1(ptr noundef %0) #0 {
  %2 = alloca ptr, align 8
  store ptr %0, ptr %2, align 8
  %3 = load ptr, ptr %2, align 8
  %4 = getelementptr inbounds %struct.Aig_Obj_t_, ptr %3, i32 0, i32 3
  %5 = load i64, ptr %4, align 8
  %6 = and i64 %5, 7
  %7 = trunc i64 %6 to i32
  %8 = icmp eq i32 %7, 1
  %9 = zext i1 %8 to i32
  ret i32 %9
}

; Function Attrs: nounwind uwtable
define i32 @Pdr_NtkFindSatAssign_rec(ptr noundef %0, ptr noundef %1, i32 noundef %2, ptr noundef %3, i32 noundef %4) #0 {
  %6 = alloca i32, align 4
  %7 = alloca ptr, align 8
  %8 = alloca ptr, align 8
  %9 = alloca i32, align 4
  %10 = alloca ptr, align 8
  %11 = alloca i32, align 4
  %12 = alloca i32, align 4
  %13 = alloca i32, align 4
  store ptr %0, ptr %7, align 8
  store ptr %1, ptr %8, align 8
  store i32 %2, ptr %9, align 4
  store ptr %3, ptr %10, align 8
  store i32 %4, ptr %11, align 4
  %14 = load ptr, ptr %8, align 8
  %15 = call i32 @Aig_ObjIsConst1(ptr noundef %14)
  %16 = icmp ne i32 %15, 0
  br i1 %16, label %17, label %18

17:                                               ; preds = %5
  store i32 1, ptr %6, align 4
  br label %190

18:                                               ; preds = %5
  %19 = load ptr, ptr %7, align 8
  %20 = load ptr, ptr %8, align 8
  %21 = call i32 @Aig_ObjIsTravIdCurrent(ptr noundef %19, ptr noundef %20)
  %22 = icmp ne i32 %21, 0
  br i1 %22, label %23, label %33

23:                                               ; preds = %18
  %24 = load ptr, ptr %8, align 8
  %25 = getelementptr inbounds %struct.Aig_Obj_t_, ptr %24, i32 0, i32 3
  %26 = load i64, ptr %25, align 8
  %27 = lshr i64 %26, 4
  %28 = and i64 %27, 1
  %29 = trunc i64 %28 to i32
  %30 = load i32, ptr %9, align 4
  %31 = icmp eq i32 %29, %30
  %32 = zext i1 %31 to i32
  store i32 %32, ptr %6, align 4
  br label %190

33:                                               ; preds = %18
  %34 = load ptr, ptr %7, align 8
  %35 = load ptr, ptr %8, align 8
  call void @Aig_ObjSetTravIdCurrent(ptr noundef %34, ptr noundef %35)
  %36 = load i32, ptr %9, align 4
  %37 = load ptr, ptr %8, align 8
  %38 = getelementptr inbounds %struct.Aig_Obj_t_, ptr %37, i32 0, i32 3
  %39 = zext i32 %36 to i64
  %40 = load i64, ptr %38, align 8
  %41 = and i64 %39, 1
  %42 = shl i64 %41, 4
  %43 = and i64 %40, -17
  %44 = or i64 %43, %42
  store i64 %44, ptr %38, align 8
  %45 = load ptr, ptr %8, align 8
  %46 = call i32 @Aig_ObjIsCi(ptr noundef %45)
  %47 = icmp ne i32 %46, 0
  br i1 %47, label %48, label %86

48:                                               ; preds = %33
  %49 = load ptr, ptr %7, align 8
  %50 = load ptr, ptr %8, align 8
  %51 = call i32 @Saig_ObjIsLo(ptr noundef %49, ptr noundef %50)
  %52 = icmp ne i32 %51, 0
  br i1 %52, label %53, label %85

53:                                               ; preds = %48
  %54 = load ptr, ptr %8, align 8
  %55 = call i32 @Aig_ObjCioId(ptr noundef %54)
  %56 = load ptr, ptr %7, align 8
  %57 = call i32 @Saig_ManPiNum(ptr noundef %56)
  %58 = sub nsw i32 %55, %57
  %59 = load i32, ptr %9, align 4
  %60 = call i32 @Abc_Var2Lit(i32 noundef %58, i32 noundef %59)
  %61 = load ptr, ptr %10, align 8
  %62 = getelementptr inbounds %struct.Pdr_Set_t_, ptr %61, i32 0, i32 4
  %63 = load ptr, ptr %10, align 8
  %64 = getelementptr inbounds %struct.Pdr_Set_t_, ptr %63, i32 0, i32 3
  %65 = load i32, ptr %64, align 8
  %66 = add nsw i32 %65, 1
  store i32 %66, ptr %64, align 8
  %67 = sext i32 %65 to i64
  %68 = getelementptr inbounds [0 x i32], ptr %62, i64 0, i64 %67
  store i32 %60, ptr %68, align 4
  %69 = load ptr, ptr %10, align 8
  %70 = getelementptr inbounds %struct.Pdr_Set_t_, ptr %69, i32 0, i32 4
  %71 = load ptr, ptr %10, align 8
  %72 = getelementptr inbounds %struct.Pdr_Set_t_, ptr %71, i32 0, i32 3
  %73 = load i32, ptr %72, align 8
  %74 = sub nsw i32 %73, 1
  %75 = sext i32 %74 to i64
  %76 = getelementptr inbounds [0 x i32], ptr %70, i64 0, i64 %75
  %77 = load i32, ptr %76, align 4
  %78 = srem i32 %77, 63
  %79 = zext i32 %78 to i64
  %80 = shl i64 1, %79
  %81 = load ptr, ptr %10, align 8
  %82 = getelementptr inbounds %struct.Pdr_Set_t_, ptr %81, i32 0, i32 0
  %83 = load i64, ptr %82, align 8
  %84 = or i64 %83, %80
  store i64 %84, ptr %82, align 8
  br label %85

85:                                               ; preds = %53, %48
  store i32 1, ptr %6, align 4
  br label %190

86:                                               ; preds = %33
  %87 = load i32, ptr %9, align 4
  %88 = icmp ne i32 %87, 0
  br i1 %88, label %89, label %115

89:                                               ; preds = %86
  %90 = load ptr, ptr %7, align 8
  %91 = load ptr, ptr %8, align 8
  %92 = call ptr @Aig_ObjFanin0(ptr noundef %91)
  %93 = load ptr, ptr %8, align 8
  %94 = call i32 @Aig_ObjFaninC0(ptr noundef %93)
  %95 = icmp ne i32 %94, 0
  %96 = xor i1 %95, true
  %97 = zext i1 %96 to i32
  %98 = load ptr, ptr %10, align 8
  %99 = load i32, ptr %11, align 4
  %100 = call i32 @Pdr_NtkFindSatAssign_rec(ptr noundef %90, ptr noundef %92, i32 noundef %97, ptr noundef %98, i32 noundef %99)
  %101 = icmp ne i32 %100, 0
  br i1 %101, label %103, label %102

102:                                              ; preds = %89
  store i32 0, ptr %6, align 4
  br label %190

103:                                              ; preds = %89
  %104 = load ptr, ptr %7, align 8
  %105 = load ptr, ptr %8, align 8
  %106 = call ptr @Aig_ObjFanin1(ptr noundef %105)
  %107 = load ptr, ptr %8, align 8
  %108 = call i32 @Aig_ObjFaninC1(ptr noundef %107)
  %109 = icmp ne i32 %108, 0
  %110 = xor i1 %109, true
  %111 = zext i1 %110 to i32
  %112 = load ptr, ptr %10, align 8
  %113 = load i32, ptr %11, align 4
  %114 = call i32 @Pdr_NtkFindSatAssign_rec(ptr noundef %104, ptr noundef %106, i32 noundef %111, ptr noundef %112, i32 noundef %113)
  store i32 %114, ptr %6, align 4
  br label %190

115:                                              ; preds = %86
  %116 = load ptr, ptr %7, align 8
  %117 = load ptr, ptr %8, align 8
  %118 = call ptr @Aig_ObjFanin0(ptr noundef %117)
  %119 = load ptr, ptr %8, align 8
  %120 = call i32 @Aig_ObjFaninC0(ptr noundef %119)
  %121 = call i32 @Pdr_ObjSatValue(ptr noundef %116, ptr noundef %118, i32 noundef %120)
  store i32 %121, ptr %12, align 4
  %122 = load i32, ptr %12, align 4
  %123 = icmp eq i32 %122, 1
  br i1 %123, label %124, label %125

124:                                              ; preds = %115
  store i32 1, ptr %6, align 4
  br label %190

125:                                              ; preds = %115
  %126 = load ptr, ptr %7, align 8
  %127 = load ptr, ptr %8, align 8
  %128 = call ptr @Aig_ObjFanin1(ptr noundef %127)
  %129 = load ptr, ptr %8, align 8
  %130 = call i32 @Aig_ObjFaninC1(ptr noundef %129)
  %131 = call i32 @Pdr_ObjSatValue(ptr noundef %126, ptr noundef %128, i32 noundef %130)
  store i32 %131, ptr %13, align 4
  %132 = load i32, ptr %13, align 4
  %133 = icmp eq i32 %132, 1
  br i1 %133, label %134, label %135

134:                                              ; preds = %125
  store i32 1, ptr %6, align 4
  br label %190

135:                                              ; preds = %125
  %136 = load i32, ptr %12, align 4
  %137 = icmp eq i32 %136, 2
  br i1 %137, label %138, label %142

138:                                              ; preds = %135
  %139 = load i32, ptr %13, align 4
  %140 = icmp eq i32 %139, 2
  br i1 %140, label %141, label %142

141:                                              ; preds = %138
  store i32 0, ptr %6, align 4
  br label %190

142:                                              ; preds = %138, %135
  %143 = load i32, ptr %12, align 4
  %144 = icmp eq i32 %143, 2
  br i1 %144, label %145, label %154

145:                                              ; preds = %142
  %146 = load ptr, ptr %7, align 8
  %147 = load ptr, ptr %8, align 8
  %148 = call ptr @Aig_ObjFanin1(ptr noundef %147)
  %149 = load ptr, ptr %8, align 8
  %150 = call i32 @Aig_ObjFaninC1(ptr noundef %149)
  %151 = load ptr, ptr %10, align 8
  %152 = load i32, ptr %11, align 4
  %153 = call i32 @Pdr_NtkFindSatAssign_rec(ptr noundef %146, ptr noundef %148, i32 noundef %150, ptr noundef %151, i32 noundef %152)
  store i32 %153, ptr %6, align 4
  br label %190

154:                                              ; preds = %142
  %155 = load i32, ptr %13, align 4
  %156 = icmp eq i32 %155, 2
  br i1 %156, label %157, label %166

157:                                              ; preds = %154
  %158 = load ptr, ptr %7, align 8
  %159 = load ptr, ptr %8, align 8
  %160 = call ptr @Aig_ObjFanin0(ptr noundef %159)
  %161 = load ptr, ptr %8, align 8
  %162 = call i32 @Aig_ObjFaninC0(ptr noundef %161)
  %163 = load ptr, ptr %10, align 8
  %164 = load i32, ptr %11, align 4
  %165 = call i32 @Pdr_NtkFindSatAssign_rec(ptr noundef %158, ptr noundef %160, i32 noundef %162, ptr noundef %163, i32 noundef %164)
  store i32 %165, ptr %6, align 4
  br label %190

166:                                              ; preds = %154
  %167 = load ptr, ptr %8, align 8
  %168 = call i32 @Aig_ObjId(ptr noundef %167)
  %169 = srem i32 %168, 4
  %170 = load i32, ptr %11, align 4
  %171 = icmp eq i32 %169, %170
  br i1 %171, label %172, label %181

172:                                              ; preds = %166
  %173 = load ptr, ptr %7, align 8
  %174 = load ptr, ptr %8, align 8
  %175 = call ptr @Aig_ObjFanin1(ptr noundef %174)
  %176 = load ptr, ptr %8, align 8
  %177 = call i32 @Aig_ObjFaninC1(ptr noundef %176)
  %178 = load ptr, ptr %10, align 8
  %179 = load i32, ptr %11, align 4
  %180 = call i32 @Pdr_NtkFindSatAssign_rec(ptr noundef %173, ptr noundef %175, i32 noundef %177, ptr noundef %178, i32 noundef %179)
  store i32 %180, ptr %6, align 4
  br label %190

181:                                              ; preds = %166
  %182 = load ptr, ptr %7, align 8
  %183 = load ptr, ptr %8, align 8
  %184 = call ptr @Aig_ObjFanin0(ptr noundef %183)
  %185 = load ptr, ptr %8, align 8
  %186 = call i32 @Aig_ObjFaninC0(ptr noundef %185)
  %187 = load ptr, ptr %10, align 8
  %188 = load i32, ptr %11, align 4
  %189 = call i32 @Pdr_NtkFindSatAssign_rec(ptr noundef %182, ptr noundef %184, i32 noundef %186, ptr noundef %187, i32 noundef %188)
  store i32 %189, ptr %6, align 4
  br label %190

190:                                              ; preds = %181, %172, %157, %145, %141, %134, %124, %103, %102, %85, %23, %17
  %191 = load i32, ptr %6, align 4
  ret i32 %191
}