; Function Attrs: nofree nosync nounwind memory(readwrite, inaccessiblemem: none) uwtable
define range(i32 0, 2) i32 @Pdr_NtkFindSatAssign_rec(ptr noundef readonly captures(none) %0, ptr noundef captures(none) %1, i32 noundef %2, ptr noundef captures(none) %3, i32 noundef %4) local_unnamed_addr #16 {
  %6 = getelementptr i8, ptr %1, i64 24
  %.val144 = load i64, ptr %6, align 8
  %7 = and i64 %.val144, 7
  %.not145 = icmp eq i64 %7, 1
  br i1 %.not145, label %Pdr_ObjSatValue.exit, label %.lr.ph

.lr.ph:                                           ; preds = %5
  %8 = getelementptr i8, ptr %0, i64 312
  br label %9

9:                                                ; preds = %.lr.ph, %tailrecurse.backedge
  %.val148 = phi i64 [ %.val144, %.lr.ph ], [ %.val, %tailrecurse.backedge ]
  %10 = phi ptr [ %6, %.lr.ph ], [ %63, %tailrecurse.backedge ]
  %.tr128147 = phi i32 [ %2, %.lr.ph ], [ %.tr128.be, %tailrecurse.backedge ]
  %.tr127146 = phi ptr [ %1, %.lr.ph ], [ %.tr127.be, %tailrecurse.backedge ]
  %.val76 = load i32, ptr %8, align 8
  %11 = getelementptr i8, ptr %.tr127146, i64 32
  %.val77 = load i32, ptr %11, align 8
  %.not124 = icmp eq i32 %.val77, %.val76
  br i1 %.not124, label %12, label %17

12:                                               ; preds = %9
  %13 = trunc i64 %.val148 to i32
  %14 = lshr i32 %13, 4
  %15 = and i32 %14, 1
  %16 = icmp eq i32 %15, %.tr128147
  br label %Pdr_ObjSatValue.exit

17:                                               ; preds = %9
  store i32 %.val76, ptr %11, align 8
  %18 = shl i32 %.tr128147, 4
  %19 = and i32 %18, 16
  %20 = zext nneg i32 %19 to i64
  %21 = and i64 %.val148, -17
  %22 = or disjoint i64 %21, %20
  store i64 %22, ptr %10, align 8
  %23 = and i64 %.val148, 7
  %.not125 = icmp eq i64 %23, 2
  br i1 %.not125, label %Saig_ObjIsLo.exit, label %45

Saig_ObjIsLo.exit:                                ; preds = %17
  %.val3.i = load i32, ptr %.tr127146, align 8
  %24 = getelementptr i8, ptr %0, i64 108
  %.val4.i = load i32, ptr %24, align 4
  %.not126 = icmp slt i32 %.val3.i, %.val4.i
  br i1 %.not126, label %Pdr_ObjSatValue.exit, label %25

25:                                               ; preds = %Saig_ObjIsLo.exit
  %26 = sub nsw i32 %.val3.i, %.val4.i
  %27 = shl nsw i32 %26, 1
  %28 = add nsw i32 %27, %.tr128147
  %29 = getelementptr inbounds nuw i8, ptr %3, i64 20
  %30 = getelementptr inbounds nuw i8, ptr %3, i64 16
  %31 = load i32, ptr %30, align 8
  %32 = add nsw i32 %31, 1
  store i32 %32, ptr %30, align 8
  %33 = sext i32 %31 to i64
  %34 = getelementptr inbounds [0 x i32], ptr %29, i64 0, i64 %33
  store i32 %28, ptr %34, align 4
  %35 = load i32, ptr %30, align 8
  %36 = add nsw i32 %35, -1
  %37 = sext i32 %36 to i64
  %38 = getelementptr inbounds [0 x i32], ptr %29, i64 0, i64 %37
  %39 = load i32, ptr %38, align 4
  %40 = srem i32 %39, 63
  %41 = zext nneg i32 %40 to i64
  %42 = shl nuw i64 1, %41
  %43 = load i64, ptr %3, align 8
  %44 = or i64 %42, %43
  store i64 %44, ptr %3, align 8
  br label %Pdr_ObjSatValue.exit

45:                                               ; preds = %17
  %.not71 = icmp eq i32 %.tr128147, 0
  %46 = getelementptr i8, ptr %.tr127146, i64 8
  %.val83 = load ptr, ptr %46, align 8
  %47 = ptrtoint ptr %.val83 to i64
  %48 = and i64 %47, -2
  %49 = inttoptr i64 %48 to ptr
  %50 = trunc i64 %47 to i32
  %51 = and i32 %50, 1
  br i1 %.not71, label %65, label %52

52:                                               ; preds = %45
  %53 = xor i32 %51, 1
  %54 = tail call i32 @Pdr_NtkFindSatAssign_rec(ptr noundef nonnull %0, ptr noundef %49, i32 noundef %53, ptr noundef %3, i32 noundef %4)
  %.not73 = icmp eq i32 %54, 0
  br i1 %.not73, label %Pdr_ObjSatValue.exit, label %55

55:                                               ; preds = %52
  %56 = getelementptr i8, ptr %.tr127146, i64 16
  %.val90 = load ptr, ptr %56, align 8
  %57 = ptrtoint ptr %.val90 to i64
  %58 = and i64 %57, -2
  %59 = inttoptr i64 %58 to ptr
  %60 = trunc i64 %57 to i32
  %61 = and i32 %60, 1
  %62 = xor i32 %61, 1
  br label %tailrecurse.backedge

tailrecurse.backedge:                             ; preds = %55, %73, %93, %.thread115
  %.tr127.be = phi ptr [ %59, %55 ], [ %77, %73 ], [ %49, %93 ], [ %., %.thread115 ]
  %.tr128.be = phi i32 [ %62, %55 ], [ %79, %73 ], [ %51, %93 ], [ %.131, %.thread115 ]
  %63 = getelementptr i8, ptr %.tr127.be, i64 24
  %.val = load i64, ptr %63, align 8
  %64 = and i64 %.val, 7
  %.not = icmp eq i64 %64, 1
  br i1 %.not, label %Pdr_ObjSatValue.exit, label %9

65:                                               ; preds = %45
  %.val98 = load i32, ptr %8, align 8
  %66 = getelementptr i8, ptr %49, i64 32
  %.val5.i = load i32, ptr %66, align 8
  %.not.i101 = icmp eq i32 %.val5.i, %.val98
  br i1 %.not.i101, label %67, label %.thread116

67:                                               ; preds = %65
  %68 = getelementptr inbounds nuw i8, ptr %49, i64 24
  %69 = load i64, ptr %68, align 8
  %70 = trunc i64 %69 to i32
  %71 = lshr i32 %70, 4
  %72 = and i32 %71, 1
  %.not4.i = icmp eq i32 %72, %51
  br i1 %.not4.i, label %Pdr_ObjSatValue.exit, label %73

73:                                               ; preds = %67
  %74 = getelementptr i8, ptr %.tr127146, i64 16
  %.val91 = load ptr, ptr %74, align 8
  %75 = ptrtoint ptr %.val91 to i64
  %76 = and i64 %75, -2
  %77 = inttoptr i64 %76 to ptr
  %78 = trunc i64 %75 to i32
  %79 = and i32 %78, 1
  %80 = getelementptr i8, ptr %77, i64 32
  %.val5.i102 = load i32, ptr %80, align 8
  %.not.i103 = icmp eq i32 %.val5.i102, %.val98
  br i1 %.not.i103, label %.thread, label %tailrecurse.backedge

.thread:                                          ; preds = %73
  %81 = getelementptr inbounds nuw i8, ptr %77, i64 24
  %82 = load i64, ptr %81, align 8
  %83 = trunc i64 %82 to i32
  %84 = lshr i32 %83, 4
  %85 = and i32 %84, 1
  %.not4.i105158 = icmp eq i32 %85, %79
  br label %Pdr_ObjSatValue.exit

.thread116:                                       ; preds = %65
  %86 = getelementptr i8, ptr %.tr127146, i64 16
  %.val91118 = load ptr, ptr %86, align 8
  %87 = ptrtoint ptr %.val91118 to i64
  %88 = and i64 %87, -2
  %89 = inttoptr i64 %88 to ptr
  %90 = trunc i64 %87 to i32
  %91 = and i32 %90, 1
  %92 = getelementptr i8, ptr %89, i64 32
  %.val5.i102119 = load i32, ptr %92, align 8
  %.not.i103120 = icmp eq i32 %.val5.i102119, %.val98
  br i1 %.not.i103120, label %93, label %.thread115

93:                                               ; preds = %.thread116
  %94 = getelementptr inbounds nuw i8, ptr %89, i64 24
  %95 = load i64, ptr %94, align 8
  %96 = trunc i64 %95 to i32
  %97 = lshr i32 %96, 4
  %98 = and i32 %97, 1
  %.not4.i105 = icmp eq i32 %98, %91
  br i1 %.not4.i105, label %Pdr_ObjSatValue.exit, label %tailrecurse.backedge

.thread115:                                       ; preds = %.thread116
  %99 = getelementptr i8, ptr %.tr127146, i64 36
  %.val100 = load i32, ptr %99, align 4
  %100 = srem i32 %.val100, 4
  %101 = icmp eq i32 %100, %4
  %. = select i1 %101, ptr %89, ptr %49
  %.131 = select i1 %101, i32 %91, i32 %51
  br label %tailrecurse.backedge

Pdr_ObjSatValue.exit:                             ; preds = %tailrecurse.backedge, %52, %67, %93, %.thread, %5, %Saig_ObjIsLo.exit, %25, %12
  %.0.shrunk = phi i1 [ %16, %12 ], [ true, %25 ], [ true, %Saig_ObjIsLo.exit ], [ true, %5 ], [ %.not4.i105158, %.thread ], [ true, %tailrecurse.backedge ], [ false, %52 ], [ true, %67 ], [ true, %93 ]
  %.0 = zext i1 %.0.shrunk to i32
  ret i32 %.0
}